; Function Attrs: mustprogress uwtable
define hidden void @_ZN2cv3ccm9Operation3addERKS1_(ptr noundef nonnull align 8 dereferenceable(144) %0, ptr noundef nonnull align 8 dereferenceable(144) %1) local_unnamed_addr #0 align 2 personality ptr @__gxx_personality_v0 {
  %3 = alloca %"class.cv::Mat", align 8
  %4 = alloca %"class.cv::MatExpr", align 8
  %5 = getelementptr inbounds i8, ptr %0, i64 16
  %6 = tail call noundef zeroext i1 @_ZNK2cv3Mat5emptyEv(ptr noundef nonnull align 8 dereferenceable(96) %5)
  %7 = getelementptr inbounds i8, ptr %1, i64 16
  br i1 %6, label %8, label %12

8:                                                ; preds = %2
  call void @_ZNK2cv3Mat5cloneEv(ptr dead_on_unwind nonnull writable sret(%"class.cv::Mat") align 8 %3, ptr noundef nonnull align 8 dereferenceable(96) %7)
  %9 = invoke noundef nonnull align 8 dereferenceable(96) ptr @_ZN2cv3MataSEOS0_(ptr noundef nonnull align 8 dereferenceable(96) %5, ptr noundef nonnull align 8 dereferenceable(96) %3)
          to label %22 unwind label %10

10:                                               ; preds = %8
  %11 = landingpad { ptr, i32 }
          cleanup
  call void @_ZN2cv3MatD1Ev(ptr noundef nonnull align 8 dereferenceable(96) %3) #13
  br label %23

12:                                               ; preds = %2
  call void @_ZN2cvmlERKNS_3MatES2_(ptr dead_on_unwind nonnull writable sret(%"class.cv::MatExpr") align 8 %4, ptr noundef nonnull align 8 dereferenceable(96) %5, ptr noundef nonnull align 8 dereferenceable(96) %7)
  %13 = load ptr, ptr %4, align 8
  %14 = load ptr, ptr %13, align 8
  %15 = getelementptr inbounds i8, ptr %14, i64 24
  %16 = load ptr, ptr %15, align 8
  invoke void %16(ptr noundef nonnull align 8 dereferenceable(8) %13, ptr noundef nonnull align 8 dereferenceable(352) %4, ptr noundef nonnull align 8 dereferenceable(96) %5, i32 noundef -1)
          to label %_ZN2cv3MataSERKNS_7MatExprE.exit unwind label %20

_ZN2cv3MataSERKNS_7MatExprE.exit:                 ; preds = %12
  %17 = getelementptr inbounds i8, ptr %4, i64 208
  call void @_ZN2cv3MatD1Ev(ptr noundef nonnull align 8 dereferenceable(96) %17) #13
  %18 = getelementptr inbounds i8, ptr %4, i64 112
  call void @_ZN2cv3MatD1Ev(ptr noundef nonnull align 8 dereferenceable(96) %18) #13
  %19 = getelementptr inbounds i8, ptr %4, i64 16
  br label %22

20:                                               ; preds = %12
  %21 = landingpad { ptr, i32 }
          cleanup
  call void @_ZN2cv7MatExprD2Ev(ptr noundef nonnull align 8 dereferenceable(352) %4) #13
  br label %23

22:                                               ; preds = %8, %_ZN2cv3MataSERKNS_7MatExprE.exit
  %.sink = phi ptr [ %19, %_ZN2cv3MataSERKNS_7MatExprE.exit ], [ %3, %8 ]
  call void @_ZN2cv3MatD1Ev(ptr noundef nonnull align 8 dereferenceable(96) %.sink) #13
  ret void

23:                                               ; preds = %20, %10
  %.pn = phi { ptr, i32 } [ %11, %10 ], [ %21, %20 ]
  resume { ptr, i32 } %.pn
}